(dp1
S'area1'
p2
(lp3
I0
aI5000
aI-5000
aI0
asS'shape1'
p4
(I15
I20
tp5
sS'spacing1'
p6
(lp7
F357.14285714285717
aF263.15789473684208
asS'N1'
p8
I300
sS'DS1'
p9
F93984.962406015038
sS'metadata1'
p10
S'Generated by computation_points_two_grids_.ipynb on 29 May 2018 18:55:17 UTC'
p11
s.