(dp1
S'projection_pole'
p2
(lp3
(lp4
F2200
aF2800
aF-1000
aF1000
aasS'model_pole'
p5
(lp6
ccopy_reg
_reconstructor
p7
(cfatiando.mesher.geometry
Prism
p8
c__builtin__
object
p9
NtRp10
(dp11
S'y2'
p12
F1000
sS'y1'
p13
F-1000
sS'props'
p14
(dp15
S'magnetization'
p16
cnumpy.core.multiarray
_reconstruct
p17
(cnumpy
ndarray
p18
(I0
tS'b'
tRp19
(I1
(L3L
tcnumpy
dtype
p20
(S'f8'
I0
I1
tRp21
(I3
S'<'
NNNI-1
I-1
I0
tbI00
S'\ts\xd9\xbf\xaf\x0f\xc6<\x00\x00\x00\x00\x00\x00\x00\x00\x00\x00\x00\x00\x00\x00$@'
tbsS'density'
p22
F2670
ssS'x2'
p23
F2800
sS'x1'
p24
F2200
sS'z1'
p25
F500
sS'z2'
p26
F1000
sbasS'metadata'
p27
S'Generated by synthetic_model_Single_Prims.ipynb on 10 October 2018 15:22:11 UTC'
p28
s.