(dp1
S'shape2'
p2
(I15
I20
tp3
sS'N2'
p4
I300
sS'spacing2'
p5
(lp6
F357.14285714285717
aF263.15789473684208
asS'metadata2'
p7
S'Generated by computation_points_two_grids_.ipynb on 29 May 2018 19:41:15 UTC'
p8
sS'area2'
p9
(lp10
I0
aI5000
aI0
aI5000
as.