(dp1
S'area'
p2
(lp3
I0
aI5000
aI-5000
aI5000
asS'spacing'
p4
(lp5
F128.2051282051282
aF126.58227848101266
asS'N'
I3200
sS'shape'
p6
(I40
I80
tp7
sS'DS'
p8
F16228.49724115547
sS'metadata'
p9
S'Generated by computation_points_one_grid_.ipynb on 10 October 2018 15:21:05 UTC'
p10
s.