(dp1
S'depth_model'
p2
(lp3
(lp4
F500
aF1000
aasS'model'
p5
(lp6
ccopy_reg
_reconstructor
p7
(cfatiando.mesher.geometry
Prism
p8
c__builtin__
object
p9
NtRp10
(dp11
S'y2'
p12
F1000
sS'y1'
p13
F-1000
sS'props'
p14
(dp15
S'magnetization'
p16
cnumpy.core.multiarray
_reconstruct
p17
(cnumpy
ndarray
p18
(I0
tS'b'
tRp19
(I1
(L3L
tcnumpy
dtype
p20
(S'f8'
I0
I1
tRp21
(I3
S'<'
NNNI-1
I-1
I0
tbI00
S'+w\x9a\xd7\xaf\x0e!@U\xa8\xe9\xbb\xb7\x0f\xf8\xbf\xff\xff\xff\xff\xff\xff\x13@'
tbsS'density'
p22
F2670
ssS'x2'
p23
F2800
sS'x1'
p24
F2200
sS'z1'
p25
F500
sS'z2'
p26
F1000
sbasS'projection'
p27
(lp28
(lp29
F2200
aF2800
aF-1000
aF1000
aasS'metadata'
p30
S'Generated by synthetic_model_Single_Prims.ipynb on 29 May 2018 19:40:49 UTC'
p31
s.